target datalayout = "e-m:e-p270:32:32-p271:32:32-p272:64:64-i64:64-i128:128-f80:128-n8:16:32:64-S128"
target triple = "x86_64-pc-linux-gnu"

%struct.AVFilterContext = type { ptr, ptr, ptr, ptr, ptr, i32, ptr, ptr, i32, ptr, ptr, i32, i32, ptr, ptr, ptr, ptr, i32, ptr, i32, i32 }
%struct.DeshakeContext = type { ptr, [129 x [129 x i32]], ptr, i32, ptr, i32, i32, i32, i32, i32, i32, ptr, %struct.Transform, i32, ptr, %struct.Transform, i32, i32, i32, i32, ptr, i32, ptr }
%struct.Transform = type { %struct.MotionVector, double, double }
%struct.MotionVector = type { double, double }

; Function Attrs: cold nounwind optsize uwtable
define internal void @uninit(ptr noundef %0) #0 {
  %2 = alloca ptr, align 8
  %3 = alloca ptr, align 8
  store ptr %0, ptr %2, align 8, !tbaa !4
  call void @llvm.lifetime.start.p0(i64 8, ptr %3) #10
  %4 = load ptr, ptr %2, align 8, !tbaa !4
  %5 = getelementptr inbounds nuw %struct.AVFilterContext, ptr %4, i32 0, i32 9
  %6 = load ptr, ptr %5, align 8, !tbaa !9
  store ptr %6, ptr %3, align 8, !tbaa !22
  %7 = load ptr, ptr %3, align 8, !tbaa !22
  %8 = getelementptr inbounds nuw %struct.DeshakeContext, ptr %7, i32 0, i32 4
  call void @av_frame_free(ptr noundef %8)
  %9 = load ptr, ptr %3, align 8, !tbaa !22
  %10 = getelementptr inbounds nuw %struct.DeshakeContext, ptr %9, i32 0, i32 2
  call void @av_freep(ptr noundef %10)
  %11 = load ptr, ptr %3, align 8, !tbaa !22
  %12 = getelementptr inbounds nuw %struct.DeshakeContext, ptr %11, i32 0, i32 3
  store i32 0, ptr %12, align 8, !tbaa !44
  %13 = load ptr, ptr %3, align 8, !tbaa !22
  %14 = getelementptr inbounds nuw %struct.DeshakeContext, ptr %13, i32 0, i32 14
  %15 = load ptr, ptr %14, align 8, !tbaa !34
  %16 = icmp ne ptr %15, null
  br i1 %16, label %17, label %22

17:                                               ; preds = %1
  %18 = load ptr, ptr %3, align 8, !tbaa !22
  %19 = getelementptr inbounds nuw %struct.DeshakeContext, ptr %18, i32 0, i32 14
  %20 = load ptr, ptr %19, align 8, !tbaa !34
  %21 = call i32 @fclose(ptr noundef %20)
  br label %22

22:                                               ; preds = %17, %1
  call void @llvm.lifetime.end.p0(i64 8, ptr %3) #10
  ret void
}