; Function Attrs: cold nounwind optsize uwtable
define internal void @uninit(ptr noundef readonly captures(none) %0) #0 {
  %2 = getelementptr inbounds nuw i8, ptr %0, i64 72
  %3 = load ptr, ptr %2, align 8, !tbaa !4
  %4 = getelementptr inbounds nuw i8, ptr %3, i64 66592
  tail call void @av_frame_free(ptr noundef nonnull %4) #10
  %5 = getelementptr inbounds nuw i8, ptr %3, i64 66576
  tail call void @av_freep(ptr noundef nonnull %5) #10
  %6 = getelementptr inbounds nuw i8, ptr %3, i64 66584
  store i32 0, ptr %6, align 8, !tbaa !40
  %7 = getelementptr inbounds nuw i8, ptr %3, i64 66672
  %8 = load ptr, ptr %7, align 8, !tbaa !30
  %.not = icmp eq ptr %8, null
  br i1 %.not, label %11, label %9

9:                                                ; preds = %1
  %10 = tail call i32 @fclose(ptr noundef nonnull %8)
  br label %11

11:                                               ; preds = %9, %1
  ret void
}